; Function Attrs: mustprogress nofree norecurse nosync nounwind willreturn memory(argmem: readwrite) uwtable
define internal void @_ZL11ctorArrayTyIN5clang6interp8IntegralILj8ELb1EEEEvPNS1_5BlockEPSt4bytebbbbPKNS1_10DescriptorE(ptr nocapture readnone %0, ptr nocapture noundef writeonly %1, i1 zeroext %2, i1 zeroext %3, i1 zeroext %4, i1 zeroext %5, ptr nocapture noundef readonly %6) #3 {
  %8 = getelementptr inbounds nuw i8, ptr %1, i64 24
  store i8 0, ptr %8, align 8
  %9 = getelementptr i8, ptr %1, i64 32
  %10 = getelementptr inbounds nuw i8, ptr %6, i64 12
  %11 = load i32, ptr %10, align 4
  %12 = icmp eq i32 %11, -1
  br i1 %12, label %._crit_edge, label %_ZNK5clang6interp10Descriptor11getNumElemsEv.exit

_ZNK5clang6interp10Descriptor11getNumElemsEv.exit: ; preds = %7
  %13 = getelementptr inbounds nuw i8, ptr %6, i64 8
  %14 = load i32, ptr %13, align 8
  %.not = icmp ugt i32 %14, %11
  br i1 %.not, label %._crit_edge, label %.lr.ph.preheader

.lr.ph.preheader:                                 ; preds = %_ZNK5clang6interp10Descriptor11getNumElemsEv.exit
  %15 = udiv i32 %11, %14
  %16 = zext i32 %15 to i64
  tail call void @llvm.memset.p0.i64(ptr align 1 %9, i8 0, i64 %16, i1 false)
  br label %._crit_edge

._crit_edge:                                      ; preds = %7, %.lr.ph.preheader, %_ZNK5clang6interp10Descriptor11getNumElemsEv.exit
  ret void
}